target datalayout = "e-m:e-p270:32:32-p271:32:32-p272:64:64-i64:64-i128:128-f80:128-n8:16:32:64-S128"
target triple = "x86_64-pc-linux-gnu"

%struct._object = type { %union.anon, ptr }
%union.anon = type { i64 }
%struct._callback_context = type { ptr, ptr, ptr }
%struct.anon = type { i32, i32 }

; Function Attrs: alwaysinline nounwind uwtable
define internal i32 @_Py_IsImmortal(ptr noundef %0) #5 {
  %2 = alloca ptr, align 8
  store ptr %0, ptr %2, align 8, !tbaa !22
  %3 = load ptr, ptr %2, align 8, !tbaa !22
  %4 = getelementptr inbounds nuw %struct._object, ptr %3, i32 0, i32 0
  %5 = getelementptr inbounds nuw %struct.anon, ptr %4, i32 0, i32 0
  %6 = load i32, ptr %5, align 8, !tbaa !65
  %7 = icmp slt i32 %6, 0
  %8 = zext i1 %7 to i32
  ret i32 %8
}

; Function Attrs: alwaysinline nounwind uwtable
define internal void @Py_DECREF(ptr noundef %0) #5 {
  %2 = alloca ptr, align 8
  store ptr %0, ptr %2, align 8, !tbaa !22
  %3 = load ptr, ptr %2, align 8, !tbaa !22
  %4 = call i32 @_Py_IsImmortal(ptr noundef %3)
  %5 = icmp ne i32 %4, 0
  br i1 %5, label %6, label %7

6:                                                ; preds = %1
  br label %16

7:                                                ; preds = %1
  %8 = load ptr, ptr %2, align 8, !tbaa !22
  %9 = getelementptr inbounds nuw %struct._object, ptr %8, i32 0, i32 0
  %10 = getelementptr inbounds nuw %struct.anon, ptr %9, i32 0, i32 0
  %11 = load i32, ptr %10, align 8, !tbaa !65
  %12 = add i32 %11, -1
  store i32 %12, ptr %10, align 8, !tbaa !65
  %13 = icmp eq i32 %12, 0
  br i1 %13, label %14, label %16

14:                                               ; preds = %7
  %15 = load ptr, ptr %2, align 8, !tbaa !22
  call void @_Py_Dealloc(ptr noundef %15)
  br label %16

16:                                               ; preds = %6, %14, %7
  ret void
}

; Function Attrs: inlinehint nounwind uwtable
define internal void @Py_XDECREF(ptr noundef %0) #2 {
  %2 = alloca ptr, align 8
  store ptr %0, ptr %2, align 8, !tbaa !22
  %3 = load ptr, ptr %2, align 8, !tbaa !22
  %4 = icmp ne ptr %3, null
  br i1 %4, label %5, label %7

5:                                                ; preds = %1
  %6 = load ptr, ptr %2, align 8, !tbaa !22
  call void @Py_DECREF(ptr noundef %6)
  br label %7

7:                                                ; preds = %5, %1
  ret void
}

; Function Attrs: nounwind uwtable
define internal i32 @collation_callback(ptr noundef %0, i32 noundef %1, ptr noundef %2, i32 noundef %3, ptr noundef %4) #0 {
  %6 = alloca ptr, align 8
  %7 = alloca i32, align 4
  %8 = alloca ptr, align 8
  %9 = alloca i32, align 4
  %10 = alloca ptr, align 8
  %11 = alloca i32, align 4
  %12 = alloca ptr, align 8
  %13 = alloca ptr, align 8
  %14 = alloca ptr, align 8
  %15 = alloca i64, align 8
  %16 = alloca i32, align 4
  %17 = alloca ptr, align 8
  %18 = alloca [3 x ptr], align 16
  %19 = alloca i64, align 8
  store ptr %0, ptr %6, align 8, !tbaa !3
  store i32 %1, ptr %7, align 4, !tbaa !30
  store ptr %2, ptr %8, align 8, !tbaa !3
  store i32 %3, ptr %9, align 4, !tbaa !30
  store ptr %4, ptr %10, align 8, !tbaa !3
  call void @llvm.lifetime.start.p0(i64 4, ptr %11) #8
  %20 = call i32 @PyGILState_Ensure()
  store i32 %20, ptr %11, align 4, !tbaa !30
  call void @llvm.lifetime.start.p0(i64 8, ptr %12) #8
  store ptr null, ptr %12, align 8, !tbaa !22
  call void @llvm.lifetime.start.p0(i64 8, ptr %13) #8
  store ptr null, ptr %13, align 8, !tbaa !22
  call void @llvm.lifetime.start.p0(i64 8, ptr %14) #8
  store ptr null, ptr %14, align 8, !tbaa !22
  call void @llvm.lifetime.start.p0(i64 8, ptr %15) #8
  call void @llvm.lifetime.start.p0(i64 4, ptr %16) #8
  store i32 0, ptr %16, align 4, !tbaa !30
  %21 = call ptr @PyErr_Occurred()
  %22 = icmp ne ptr %21, null
  br i1 %22, label %23, label %24

23:                                               ; preds = %5
  br label %80

24:                                               ; preds = %5
  %25 = load ptr, ptr %8, align 8, !tbaa !3
  %26 = load i32, ptr %7, align 4, !tbaa !30
  %27 = sext i32 %26 to i64
  %28 = call ptr @PyUnicode_FromStringAndSize(ptr noundef %25, i64 noundef %27)
  store ptr %28, ptr %12, align 8, !tbaa !22
  %29 = load ptr, ptr %12, align 8, !tbaa !22
  %30 = icmp eq ptr %29, null
  br i1 %30, label %31, label %32

31:                                               ; preds = %24
  br label %80

32:                                               ; preds = %24
  %33 = load ptr, ptr %10, align 8, !tbaa !3
  %34 = load i32, ptr %9, align 4, !tbaa !30
  %35 = sext i32 %34 to i64
  %36 = call ptr @PyUnicode_FromStringAndSize(ptr noundef %33, i64 noundef %35)
  store ptr %36, ptr %13, align 8, !tbaa !22
  %37 = load ptr, ptr %13, align 8, !tbaa !22
  %38 = icmp eq ptr %37, null
  br i1 %38, label %39, label %40

39:                                               ; preds = %32
  br label %80

40:                                               ; preds = %32
  %41 = load ptr, ptr %6, align 8, !tbaa !3
  store ptr %41, ptr %17, align 8, !tbaa !64
  store ptr null, ptr %18, align 8, !tbaa !22
  %42 = getelementptr inbounds ptr, ptr %18, i64 1
  %43 = load ptr, ptr %12, align 8, !tbaa !22
  store ptr %43, ptr %42, align 8, !tbaa !22
  %44 = getelementptr inbounds ptr, ptr %18, i64 2
  %45 = load ptr, ptr %13, align 8, !tbaa !22
  store ptr %45, ptr %44, align 8, !tbaa !22
  store i64 -9223372036854775806, ptr %19, align 8, !tbaa !39
  %46 = load ptr, ptr %17, align 8, !tbaa !64
  %47 = getelementptr inbounds nuw %struct._callback_context, ptr %46, i32 0, i32 0
  %48 = load ptr, ptr %47, align 8, !tbaa !51
  %49 = getelementptr inbounds [3 x ptr], ptr %18, i64 0, i64 0
  %50 = getelementptr ptr, ptr %49, i64 1
  %51 = load i64, ptr %19, align 8, !tbaa !39
  %52 = call ptr @PyObject_Vectorcall(ptr noundef %48, ptr noundef %50, i64 noundef %51, ptr noundef null)
  store ptr %52, ptr %14, align 8, !tbaa !22
  %53 = load ptr, ptr %14, align 8, !tbaa !22
  %54 = icmp eq ptr %53, null
  br i1 %54, label %55, label %56

55:                                               ; preds = %40
  br label %80

56:                                               ; preds = %40
  %57 = load ptr, ptr %14, align 8, !tbaa !22
  %58 = call i64 @PyLong_AsLongAndOverflow(ptr noundef %57, ptr noundef %16)
  store i64 %58, ptr %15, align 8, !tbaa !39
  %59 = load i64, ptr %15, align 8, !tbaa !39
  %60 = icmp eq i64 %59, -1
  br i1 %60, label %61, label %65

61:                                               ; preds = %56
  %62 = call ptr @PyErr_Occurred()
  %63 = icmp ne ptr %62, null
  br i1 %63, label %64, label %65

64:                                               ; preds = %61
  call void @PyErr_Clear()
  store i32 0, ptr %16, align 4, !tbaa !30
  br label %79

65:                                               ; preds = %61, %56
  %66 = load i32, ptr %16, align 4, !tbaa !30
  %67 = icmp ne i32 %66, 0
  br i1 %67, label %78, label %68

68:                                               ; preds = %65
  %69 = load i64, ptr %15, align 8, !tbaa !39
  %70 = icmp sgt i64 %69, 0
  br i1 %70, label %71, label %72

71:                                               ; preds = %68
  store i32 1, ptr %16, align 4, !tbaa !30
  br label %77

72:                                               ; preds = %68
  %73 = load i64, ptr %15, align 8, !tbaa !39
  %74 = icmp slt i64 %73, 0
  br i1 %74, label %75, label %76

75:                                               ; preds = %72
  store i32 -1, ptr %16, align 4, !tbaa !30
  br label %76

76:                                               ; preds = %75, %72
  br label %77

77:                                               ; preds = %76, %71
  br label %78

78:                                               ; preds = %77, %65
  br label %79

79:                                               ; preds = %78, %64
  br label %80

80:                                               ; preds = %79, %55, %39, %31, %23
  %81 = load ptr, ptr %12, align 8, !tbaa !22
  call void @Py_XDECREF(ptr noundef %81)
  %82 = load ptr, ptr %13, align 8, !tbaa !22
  call void @Py_XDECREF(ptr noundef %82)
  %83 = load ptr, ptr %14, align 8, !tbaa !22
  call void @Py_XDECREF(ptr noundef %83)
  %84 = load i32, ptr %11, align 4, !tbaa !30
  call void @PyGILState_Release(i32 noundef %84)
  %85 = load i32, ptr %16, align 4, !tbaa !30
  call void @llvm.lifetime.end.p0(i64 4, ptr %16) #8
  call void @llvm.lifetime.end.p0(i64 8, ptr %15) #8
  call void @llvm.lifetime.end.p0(i64 8, ptr %14) #8
  call void @llvm.lifetime.end.p0(i64 8, ptr %13) #8
  call void @llvm.lifetime.end.p0(i64 8, ptr %12) #8
  call void @llvm.lifetime.end.p0(i64 4, ptr %11) #8
  ret i32 %85
}