; Function Attrs: nounwind uwtable
define internal i32 @collation_callback(ptr noundef readonly captures(none) %0, i32 noundef %1, ptr noundef %2, i32 noundef %3, ptr noundef %4) #0 {
  %6 = alloca i32, align 4
  %7 = alloca [3 x ptr], align 16
  %8 = tail call i32 @PyGILState_Ensure() #7
  call void @llvm.lifetime.start.p0(i64 4, ptr nonnull %6) #7
  store i32 0, ptr %6, align 4, !tbaa !96
  %9 = tail call ptr @PyErr_Occurred() #7
  %.not = icmp eq ptr %9, null
  br i1 %.not, label %10, label %Py_XDECREF.exit34

10:                                               ; preds = %5
  %11 = sext i32 %1 to i64
  %12 = tail call ptr @PyUnicode_FromStringAndSize(ptr noundef %2, i64 noundef %11) #7
  %13 = icmp eq ptr %12, null
  br i1 %13, label %Py_XDECREF.exit34, label %14

14:                                               ; preds = %10
  %15 = sext i32 %3 to i64
  %16 = tail call ptr @PyUnicode_FromStringAndSize(ptr noundef %4, i64 noundef %15) #7
  %17 = icmp eq ptr %16, null
  br i1 %17, label %37, label %18

18:                                               ; preds = %14
  store ptr null, ptr %7, align 16, !tbaa !25
  %19 = getelementptr inbounds nuw i8, ptr %7, i64 8
  store ptr %12, ptr %19, align 8, !tbaa !25
  %20 = getelementptr inbounds nuw i8, ptr %7, i64 16
  store ptr %16, ptr %20, align 16, !tbaa !25
  %21 = load ptr, ptr %0, align 8, !tbaa !77
  %22 = call ptr @PyObject_Vectorcall(ptr noundef %21, ptr noundef nonnull %19, i64 noundef -9223372036854775806, ptr noundef null) #7
  %23 = icmp eq ptr %22, null
  br i1 %23, label %37, label %24

24:                                               ; preds = %18
  %25 = call i64 @PyLong_AsLongAndOverflow(ptr noundef nonnull %22, ptr noundef nonnull %6) #7
  %26 = icmp eq i64 %25, -1
  br i1 %26, label %27, label %30

27:                                               ; preds = %24
  %28 = call ptr @PyErr_Occurred() #7
  %.not27 = icmp eq ptr %28, null
  br i1 %.not27, label %.thread, label %29

29:                                               ; preds = %27
  call void @PyErr_Clear() #7
  br label %.sink.split

30:                                               ; preds = %24
  %31 = load i32, ptr %6, align 4, !tbaa !96
  %.not28 = icmp eq i32 %31, 0
  br i1 %.not28, label %33, label %37

.thread:                                          ; preds = %27
  %32 = load i32, ptr %6, align 4, !tbaa !96
  %.not2835 = icmp eq i32 %32, 0
  br i1 %.not2835, label %.sink.split, label %37

33:                                               ; preds = %30
  %34 = icmp sgt i64 %25, 0
  br i1 %34, label %.sink.split, label %35

35:                                               ; preds = %33
  %36 = icmp slt i64 %25, 0
  br i1 %36, label %.sink.split, label %37

.sink.split:                                      ; preds = %35, %.thread, %33, %29
  %.sink = phi i32 [ 0, %29 ], [ 1, %33 ], [ -1, %.thread ], [ -1, %35 ]
  store i32 %.sink, ptr %6, align 4, !tbaa !96
  br label %37

37:                                               ; preds = %.sink.split, %14, %18, %30, %35, %.thread
  %.020.ph = phi ptr [ %22, %.thread ], [ %22, %35 ], [ %22, %30 ], [ null, %18 ], [ null, %14 ], [ %22, %.sink.split ]
  %38 = load i32, ptr %12, align 8, !tbaa !34
  %.not.i.i = icmp sgt i32 %38, -1
  br i1 %.not.i.i, label %39, label %Py_XDECREF.exit

39:                                               ; preds = %37
  %40 = add nsw i32 %38, -1
  store i32 %40, ptr %12, align 8, !tbaa !34
  %41 = icmp eq i32 %40, 0
  br i1 %41, label %42, label %Py_XDECREF.exit

42:                                               ; preds = %39
  call void @_Py_Dealloc(ptr noundef nonnull %12) #7
  br label %Py_XDECREF.exit

Py_XDECREF.exit:                                  ; preds = %37, %39, %42
  br i1 %17, label %Py_XDECREF.exit31, label %43

43:                                               ; preds = %Py_XDECREF.exit
  %44 = load i32, ptr %16, align 8, !tbaa !34
  %.not.i.i30 = icmp sgt i32 %44, -1
  br i1 %.not.i.i30, label %45, label %Py_XDECREF.exit31

45:                                               ; preds = %43
  %46 = add nsw i32 %44, -1
  store i32 %46, ptr %16, align 8, !tbaa !34
  %47 = icmp eq i32 %46, 0
  br i1 %47, label %48, label %Py_XDECREF.exit31

48:                                               ; preds = %45
  call void @_Py_Dealloc(ptr noundef nonnull %16) #7
  br label %Py_XDECREF.exit31

Py_XDECREF.exit31:                                ; preds = %Py_XDECREF.exit, %43, %45, %48
  %.not.i32 = icmp eq ptr %.020.ph, null
  br i1 %.not.i32, label %Py_XDECREF.exit34, label %49

49:                                               ; preds = %Py_XDECREF.exit31
  %50 = load i32, ptr %.020.ph, align 8, !tbaa !34
  %.not.i.i33 = icmp sgt i32 %50, -1
  br i1 %.not.i.i33, label %51, label %Py_XDECREF.exit34

51:                                               ; preds = %49
  %52 = add nsw i32 %50, -1
  store i32 %52, ptr %.020.ph, align 8, !tbaa !34
  %53 = icmp eq i32 %52, 0
  br i1 %53, label %54, label %Py_XDECREF.exit34

54:                                               ; preds = %51
  call void @_Py_Dealloc(ptr noundef nonnull %.020.ph) #7
  br label %Py_XDECREF.exit34

Py_XDECREF.exit34:                                ; preds = %5, %10, %Py_XDECREF.exit31, %49, %51, %54
  call void @PyGILState_Release(i32 noundef %8) #7
  %55 = load i32, ptr %6, align 4, !tbaa !96
  call void @llvm.lifetime.end.p0(i64 4, ptr nonnull %6) #7
  ret i32 %55
}